; Function Attrs: nofree nounwind memory(read, inaccessiblemem: none) uwtable
define ptr @PQparameterStatus(ptr noundef readonly captures(address_is_null) %0, ptr noundef readonly captures(address_is_null) %1) local_unnamed_addr #17 {
  %3 = icmp ne ptr %0, null
  %4 = icmp ne ptr %1, null
  %or.cond = and i1 %3, %4
  br i1 %or.cond, label %5, label %.loopexit

5:                                                ; preds = %2
  %6 = getelementptr inbounds nuw i8, ptr %0, i64 944
  br label %7

7:                                                ; preds = %8, %5
  %.0.in = phi ptr [ %6, %5 ], [ %.0, %8 ]
  %.0 = load ptr, ptr %.0.in, align 8
  %.not = icmp eq ptr %.0, null
  br i1 %.not, label %.loopexit, label %8

8:                                                ; preds = %7
  %9 = getelementptr inbounds nuw i8, ptr %.0, i64 8
  %10 = load ptr, ptr %9, align 8
  %11 = tail call i32 @strcmp(ptr noundef nonnull dereferenceable(1) %10, ptr noundef nonnull dereferenceable(1) %1) #26
  %12 = icmp eq i32 %11, 0
  br i1 %12, label %13, label %7, !llvm.loop !53

13:                                               ; preds = %8
  %14 = getelementptr inbounds nuw i8, ptr %.0, i64 16
  %15 = load ptr, ptr %14, align 8
  br label %.loopexit

.loopexit:                                        ; preds = %7, %2, %13
  %.010 = phi ptr [ %15, %13 ], [ null, %2 ], [ null, %7 ]
  ret ptr %.010
}